; Function Attrs: nofree norecurse nosync nounwind memory(argmem: readwrite) uwtable
define internal void @h264_v_loop_filter_luma_intra_9_c(ptr noundef captures(none) %0, i64 noundef %1, i32 noundef %2, i32 noundef %3) #1 {
  %5 = ashr i64 %1, 1
  %6 = shl i32 %2, 1
  %7 = shl i32 %3, 1
  %.idx.i = mul nsw i64 %5, -6
  %.idx139.i = mul nsw i64 %5, -4
  %8 = sub nsw i64 0, %5
  %9 = and i64 %1, -2
  %10 = lshr i32 %6, 2
  %11 = add nuw nsw i32 %10, 2
  %.idx140.i = mul nsw i64 %5, -8
  %.idx141.i = mul nsw i64 %5, 6
  br label %12

12:                                               ; preds = %4, %128
  %.0.i4 = phi ptr [ %0, %4 ], [ %129, %128 ]
  %.0127.i3 = phi i32 [ 0, %4 ], [ %130, %128 ]
  %13 = getelementptr inbounds i8, ptr %.0.i4, i64 %.idx.i
  %14 = load i16, ptr %13, align 2, !tbaa !37
  %15 = zext i16 %14 to i32
  %16 = getelementptr inbounds i8, ptr %.0.i4, i64 %.idx139.i
  %17 = load i16, ptr %16, align 2, !tbaa !37
  %18 = zext i16 %17 to i32
  %19 = getelementptr inbounds i16, ptr %.0.i4, i64 %8
  %20 = load i16, ptr %19, align 2, !tbaa !37
  %21 = zext i16 %20 to i32
  %22 = load i16, ptr %.0.i4, align 2, !tbaa !37
  %23 = zext i16 %22 to i32
  %24 = getelementptr inbounds i16, ptr %.0.i4, i64 %5
  %25 = load i16, ptr %24, align 2, !tbaa !37
  %26 = zext i16 %25 to i32
  %27 = getelementptr inbounds i16, ptr %.0.i4, i64 %9
  %28 = load i16, ptr %27, align 2, !tbaa !37
  %29 = zext i16 %28 to i32
  %30 = sub nsw i32 %21, %23
  %31 = tail call i32 @llvm.abs.i32(i32 %30, i1 true)
  %32 = icmp slt i32 %31, %6
  br i1 %32, label %33, label %128

33:                                               ; preds = %12
  %34 = sub nsw i32 %18, %21
  %35 = tail call i32 @llvm.abs.i32(i32 %34, i1 true)
  %36 = icmp slt i32 %35, %7
  br i1 %36, label %37, label %128

37:                                               ; preds = %33
  %38 = sub nsw i32 %26, %23
  %39 = tail call i32 @llvm.abs.i32(i32 %38, i1 true)
  %40 = icmp samesign ult i32 %39, %7
  br i1 %40, label %41, label %128

41:                                               ; preds = %37
  %42 = icmp samesign ult i32 %31, %11
  br i1 %42, label %43, label %115

43:                                               ; preds = %41
  %44 = sub nsw i32 %15, %21
  %45 = tail call i32 @llvm.abs.i32(i32 %44, i1 true)
  %46 = icmp samesign ult i32 %45, %7
  br i1 %46, label %47, label %73

47:                                               ; preds = %43
  %48 = getelementptr inbounds i8, ptr %.0.i4, i64 %.idx140.i
  %49 = load i16, ptr %48, align 2, !tbaa !37
  %50 = zext i16 %49 to i32
  %51 = add nuw nsw i32 %23, %18
  %52 = add nuw nsw i32 %51, %21
  %53 = shl nuw nsw i32 %52, 1
  %54 = add nuw nsw i32 %26, 4
  %55 = add nuw nsw i32 %54, %15
  %56 = add nuw nsw i32 %55, %53
  %57 = lshr i32 %56, 3
  %58 = trunc nuw i32 %57 to i16
  store i16 %58, ptr %19, align 2, !tbaa !37
  %59 = add nuw nsw i32 %51, 2
  %60 = add nuw nsw i32 %59, %15
  %61 = add nuw nsw i32 %60, %21
  %62 = lshr i32 %61, 2
  %63 = trunc nuw i32 %62 to i16
  store i16 %63, ptr %16, align 2, !tbaa !37
  %64 = shl nuw nsw i32 %50, 1
  %65 = mul nuw nsw i32 %15, 3
  %66 = add nuw nsw i32 %65, 4
  %67 = add nuw nsw i32 %66, %18
  %68 = add nuw nsw i32 %67, %21
  %69 = add nuw nsw i32 %68, %23
  %70 = add nuw nsw i32 %69, %64
  %71 = lshr i32 %70, 3
  %72 = trunc nuw i32 %71 to i16
  store i16 %72, ptr %13, align 2, !tbaa !37
  br label %80

73:                                               ; preds = %43
  %74 = shl nuw nsw i32 %18, 1
  %75 = add nuw nsw i32 %21, 2
  %76 = add nuw nsw i32 %75, %74
  %77 = add nuw nsw i32 %76, %26
  %78 = lshr i32 %77, 2
  %79 = trunc nuw i32 %78 to i16
  store i16 %79, ptr %19, align 2, !tbaa !37
  br label %80

80:                                               ; preds = %73, %47
  %81 = sub nsw i32 %29, %23
  %82 = tail call i32 @llvm.abs.i32(i32 %81, i1 true)
  %83 = icmp samesign ult i32 %82, %7
  br i1 %83, label %84, label %108

84:                                               ; preds = %80
  %85 = getelementptr inbounds i8, ptr %.0.i4, i64 %.idx141.i
  %86 = load i16, ptr %85, align 2, !tbaa !37
  %87 = zext i16 %86 to i32
  %88 = add nuw nsw i32 %23, %21
  %89 = add nuw nsw i32 %88, %26
  %90 = shl nuw nsw i32 %89, 1
  %91 = add nuw nsw i32 %18, 4
  %92 = add nuw nsw i32 %91, %29
  %93 = add nuw nsw i32 %92, %90
  %94 = lshr i32 %93, 3
  %95 = trunc nuw i32 %94 to i16
  store i16 %95, ptr %.0.i4, align 2, !tbaa !37
  %96 = add nuw nsw i32 %29, 2
  %97 = add nuw nsw i32 %96, %89
  %98 = lshr i32 %97, 2
  %99 = trunc nuw i32 %98 to i16
  store i16 %99, ptr %24, align 2, !tbaa !37
  %100 = shl nuw nsw i32 %87, 1
  %101 = mul nuw nsw i32 %29, 3
  %102 = add nuw nsw i32 %88, 4
  %103 = add nuw nsw i32 %102, %26
  %104 = add nuw nsw i32 %103, %101
  %105 = add nuw nsw i32 %104, %100
  %106 = lshr i32 %105, 3
  %107 = trunc nuw i32 %106 to i16
  store i16 %107, ptr %27, align 2, !tbaa !37
  br label %128

108:                                              ; preds = %80
  %109 = shl nuw nsw i32 %26, 1
  %110 = add nuw nsw i32 %23, %18
  %111 = add nuw nsw i32 %110, 2
  %112 = add nuw nsw i32 %111, %109
  %113 = lshr i32 %112, 2
  %114 = trunc nuw i32 %113 to i16
  store i16 %114, ptr %.0.i4, align 2, !tbaa !37
  br label %128

115:                                              ; preds = %41
  %116 = shl nuw nsw i32 %18, 1
  %117 = add nuw nsw i32 %21, 2
  %118 = add nuw nsw i32 %117, %116
  %119 = add nuw nsw i32 %118, %26
  %120 = lshr i32 %119, 2
  %121 = trunc nuw i32 %120 to i16
  store i16 %121, ptr %19, align 2, !tbaa !37
  %122 = shl nuw nsw i32 %26, 1
  %123 = add nuw nsw i32 %23, %18
  %124 = add nuw nsw i32 %123, 2
  %125 = add nuw nsw i32 %124, %122
  %126 = lshr i32 %125, 2
  %127 = trunc nuw i32 %126 to i16
  store i16 %127, ptr %.0.i4, align 2, !tbaa !37
  br label %128

128:                                              ; preds = %115, %108, %84, %37, %33, %12
  %129 = getelementptr inbounds nuw i8, ptr %.0.i4, i64 2
  %130 = add nuw nsw i32 %.0127.i3, 1
  %exitcond.not = icmp eq i32 %130, 16
  br i1 %exitcond.not, label %h264_loop_filter_luma_intra_9_c.exit, label %12, !llvm.loop !55

h264_loop_filter_luma_intra_9_c.exit:             ; preds = %128
  ret void
}